Certificate:
    Data:
        Version: 3 (0x2)
        Serial Number: 1048612 (0x100024)
    Signature Algorithm: sha384WithRSAEncryption
        Issuer: O=Beijing VRV Software Corporation Limited., OU=Mobile Interconnection Center, CN=VRV Trust NetWork
        Validity
            Not Before: Mar 13 10:57:04 2016 GMT
            Not After : Mar 11 10:57:04 2026 GMT
        Subject: C=CN, ST=Beijing, O=\xE5\x8C\x97\xE4\xBF\xA1\xE6\xBA\x90, OU=/it?c=linkdood&an=com.vrv.linkdood, CN=\xE8\xBF\x9E\xE8\xB1\x86\xE8\xB1\x86\xE8\xBD\xBB\xE8\x81\x8A\xE7\x89\x88
        Subject Public Key Info:
            Public Key Algorithm: rsaEncryption
                Public-Key: (2048 bit)
                Modulus:
                    00:ce:c1:5e:cc:29:df:31:e1:31:97:32:9c:32:18:
                    b7:37:bf:06:cd:27:07:64:d0:a2:5a:c5:b8:11:78:
                    32:04:86:ff:df:73:18:72:50:e2:5b:7b:4c:f5:6d:
                    b7:40:62:5a:47:f3:c3:ac:fb:de:9e:44:71:3f:6f:
                    7c:48:01:0b:f4:bf:da:89:87:33:2d:5c:91:77:32:
                    50:2c:0f:3b:45:24:02:38:77:5a:d2:ce:35:82:ef:
                    51:70:33:72:cd:86:40:f5:c4:8a:27:3c:7b:b9:25:
                    df:b4:7a:45:cc:3f:47:73:03:af:fe:32:b9:74:b1:
                    0c:29:f3:b5:7d:84:a7:25:fd:cb:c6:d6:0d:e6:2a:
                    a5:cc:7f:5c:ff:8f:d1:46:10:6a:d2:3c:b8:ed:c2:
                    84:97:0c:5d:22:a2:3b:dc:e7:b0:6d:3c:9b:c7:e8:
                    7e:17:43:34:5b:f8:c8:56:70:aa:cc:25:0f:98:69:
                    df:00:95:5a:76:a7:ee:d6:48:40:12:3f:54:4c:df:
                    a2:8c:3c:dc:1a:94:b4:be:36:d3:46:09:fc:0a:46:
                    69:3e:19:a7:dd:32:c7:85:f8:52:ab:c7:0b:78:b9:
                    c8:1d:d6:52:aa:b7:7e:7a:5f:64:e2:07:a1:fb:7e:
                    ca:4a:f4:09:9b:ea:22:7c:bc:2a:74:bf:be:b6:da:
                    19:55
                Exponent: 65537 (0x10001)
        X509v3 extensions:
            X509v3 Basic Constraints: 
                CA:FALSE
            Netscape Comment: 
                www.linkdood.com
            X509v3 Subject Key Identifier: 
                72:6A:28:00:A7:73:0D:E6:61:A9:22:0C:79:24:C1:FF:1F:AD:3D:06
            X509v3 Authority Key Identifier: 
                keyid:73:CE:F9:8F:ED:CD:76:66:60:5F:C4:1E:17:CF:52:90:D3:90:FC:33

    Signature Algorithm: sha384WithRSAEncryption
         35:74:65:84:2c:36:ff:64:20:64:cd:5a:5a:5f:56:55:22:fc:
         9d:90:d4:fd:d9:b7:7d:ec:d6:8e:b6:c3:f3:67:0d:ae:74:af:
         53:a7:5f:23:c1:30:dd:c5:b1:86:b9:35:a7:aa:74:ca:65:f5:
         02:1d:4a:aa:5b:ee:ae:99:ba:cd:dd:25:de:71:9c:6c:53:e3:
         25:86:7c:06:fd:51:62:98:c9:65:65:94:27:c4:6f:c4:43:3b:
         0c:41:dc:db:72:70:db:02:75:0e:5a:44:8f:d2:28:c1:e6:73:
         fb:88:cf:a4:8b:0c:39:33:e6:41:68:a9:68:8d:55:dd:4e:63:
         21:52:32:e6:90:25:e1:e8:0e:8d:f8:04:62:43:32:36:cf:82:
         f9:3f:63:85:34:8a:d7:fd:11:f2:bb:64:5b:78:c9:19:6e:ba:
         73:db:c7:fd:6f:f4:b1:8b:d0:56:b6:e7:0e:1c:5e:d7:66:34:
         79:23:3f:b8:8a:c3:2f:ae:d3:a1:01:10:5b:81:e2:67:61:6d:
         16:31:af:45:29:3f:5a:d2:55:bf:bf:c1:bf:2f:0a:cf:24:59:
         ff:da:43:47:67:d9:f8:a9:c5:88:cf:bb:29:d3:2a:a7:ce:15:
         91:b6:eb:73:91:43:3f:d4:8d:3d:65:1e:8f:e5:84:24:01:08:
         1b:52:d0:c3
-----BEGIN CERTIFICATE-----
MIID4DCCAsigAwIBAgIDEAAkMA0GCSqGSIb3DQEBDAUAMHgxMjAwBgNVBAoMKUJl
aWppbmcgVlJWIFNvZnR3YXJlIENvcnBvcmF0aW9uIExpbWl0ZWQuMSYwJAYDVQQL
DB1Nb2JpbGUgSW50ZXJjb25uZWN0aW9uIENlbnRlcjEaMBgGA1UEAwwRVlJWIFRy
dXN0IE5ldFdvcmswHhcNMTYwMzEzMTA1NzA0WhcNMjYwMzExMTA1NzA0WjB9MQsw
CQYDVQQGEwJDTjEQMA4GA1UECAwHQmVpamluZzESMBAGA1UECgwJ5YyX5L+h5rqQ
MSswKQYDVQQLDCIvaXQ/Yz1saW5rZG9vZCZhbj1jb20udnJ2Lmxpbmtkb29kMRsw
GQYDVQQDDBLov57osYbosYbovbvogYrniYgwggEiMA0GCSqGSIb3DQEBAQUAA4IB
DwAwggEKAoIBAQDOwV7MKd8x4TGXMpwyGLc3vwbNJwdk0KJaxbgReDIEhv/fcxhy
UOJbe0z1bbdAYlpH88Os+96eRHE/b3xIAQv0v9qJhzMtXJF3MlAsDztFJAI4d1rS
zjWC71FwM3LNhkD1xIonPHu5Jd+0ekXMP0dzA6/+Mrl0sQwp87V9hKcl/cvG1g3m
KqXMf1z/j9FGEGrSPLjtwoSXDF0iojvc57BtPJvH6H4XQzRb+MhWcKrMJQ+Yad8A
lVp2p+7WSEASP1RM36KMPNwalLS+NtNGCfwKRmk+GafdMseF+FKrxwt4ucgd1lKq
t356X2TiB6H7fspK9Amb6iJ8vCp0v7622hlVAgMBAAGjbjBsMAkGA1UdEwQCMAAw
HwYJYIZIAYb4QgENBBIWEHd3dy5saW5rZG9vZC5jb20wHQYDVR0OBBYEFHJqKACn
cw3mYakiDHkkwf8frT0GMB8GA1UdIwQYMBaAFHPO+Y/tzXZmYF/EHhfPUpDTkPwz
MA0GCSqGSIb3DQEBDAUAA4IBAQA1dGWELDb/ZCBkzVpaX1ZVIvydkNT92bd97NaO
tsPzZw2udK9Tp18jwTDdxbGGuTWnqnTKZfUCHUqqW+6umbrN3SXecZxsU+MlhnwG
/VFimMllZZQnxG/EQzsMQdzbcnDbAnUOWkSP0ijB5nP7iM+kiww5M+ZBaKlojVXd
TmMhUjLmkCXh6A6N+ARiQzI2z4L5P2OFNIrX/RHyu2RbeMkZbrpz28f9b/Sxi9BW
tucOHF7XZjR5Iz+4isMvrtOhARBbgeJnYW0WMa9FKT9a0lW/v8G/LwrPJFn/2kNH
Z9n4qcWIz7sp0yqnzhWRtutzkUM/1I09ZR6P5YQkAQgbUtDD
-----END CERTIFICATE-----
